target datalayout = "e-m:e-p270:32:32-p271:32:32-p272:64:64-i64:64-i128:128-f80:128-n8:16:32:64-S128"
target triple = "x86_64-pc-linux-gnu"

%struct.mbedtls_ripemd160_context = type { [2 x i32], [5 x i32], [64 x i8] }

@.str = private unnamed_addr constant [24 x i8] c"  RIPEMD-160 test #%d: \00", align 1
@ripemd160_test_strlen = internal constant [8 x i64] [i64 0, i64 1, i64 3, i64 14, i64 26, i64 56, i64 62, i64 80], align 16
@.str.1 = private unnamed_addr constant [8 x i8] c"passed\0A\00", align 1
@.str.2 = private unnamed_addr constant [2 x i8] c"\0A\00", align 1
@.str.3 = private unnamed_addr constant [8 x i8] c"failed\0A\00", align 1

; Function Attrs: nounwind uwtable
define hidden void @mbedtls_ripemd160_free(ptr noundef %0) #0 {
  %2 = alloca ptr, align 8
  store ptr %0, ptr %2, align 8, !tbaa !3
  %3 = load ptr, ptr %2, align 8, !tbaa !3
  %4 = icmp eq ptr %3, null
  br i1 %4, label %5, label %6

5:                                                ; preds = %1
  br label %8

6:                                                ; preds = %1
  %7 = load ptr, ptr %2, align 8, !tbaa !3
  call void @mbedtls_platform_zeroize(ptr noundef %7, i64 noundef 92)
  br label %8

8:                                                ; preds = %6, %5
  ret void
}

; Function Attrs: nounwind uwtable
define hidden i32 @mbedtls_ripemd160_update(ptr noundef %0, ptr noundef %1, i64 noundef %2) #0 {
  %4 = alloca i32, align 4
  %5 = alloca ptr, align 8
  %6 = alloca ptr, align 8
  %7 = alloca i64, align 8
  %8 = alloca i32, align 4
  %9 = alloca i64, align 8
  %10 = alloca i32, align 4
  %11 = alloca i32, align 4
  store ptr %0, ptr %5, align 8, !tbaa !3
  store ptr %1, ptr %6, align 8, !tbaa !12
  store i64 %2, ptr %7, align 8, !tbaa !26
  call void @llvm.lifetime.start.p0(i64 4, ptr %8) #7
  store i32 -110, ptr %8, align 4, !tbaa !10
  call void @llvm.lifetime.start.p0(i64 8, ptr %9) #7
  call void @llvm.lifetime.start.p0(i64 4, ptr %10) #7
  %12 = load i64, ptr %7, align 8, !tbaa !26
  %13 = icmp eq i64 %12, 0
  br i1 %13, label %14, label %15

14:                                               ; preds = %3
  store i32 0, ptr %4, align 4
  store i32 1, ptr %11, align 4
  br label %109

15:                                               ; preds = %3
  %16 = load ptr, ptr %5, align 8, !tbaa !3
  %17 = getelementptr inbounds nuw %struct.mbedtls_ripemd160_context, ptr %16, i32 0, i32 0
  %18 = getelementptr inbounds [2 x i32], ptr %17, i64 0, i64 0
  %19 = load i32, ptr %18, align 4, !tbaa !10
  %20 = and i32 %19, 63
  store i32 %20, ptr %10, align 4, !tbaa !10
  %21 = load i32, ptr %10, align 4, !tbaa !10
  %22 = sub i32 64, %21
  %23 = zext i32 %22 to i64
  store i64 %23, ptr %9, align 8, !tbaa !26
  %24 = load i64, ptr %7, align 8, !tbaa !26
  %25 = trunc i64 %24 to i32
  %26 = load ptr, ptr %5, align 8, !tbaa !3
  %27 = getelementptr inbounds nuw %struct.mbedtls_ripemd160_context, ptr %26, i32 0, i32 0
  %28 = getelementptr inbounds [2 x i32], ptr %27, i64 0, i64 0
  %29 = load i32, ptr %28, align 4, !tbaa !10
  %30 = add i32 %29, %25
  store i32 %30, ptr %28, align 4, !tbaa !10
  %31 = load ptr, ptr %5, align 8, !tbaa !3
  %32 = getelementptr inbounds nuw %struct.mbedtls_ripemd160_context, ptr %31, i32 0, i32 0
  %33 = getelementptr inbounds [2 x i32], ptr %32, i64 0, i64 0
  %34 = load i32, ptr %33, align 4, !tbaa !10
  %35 = and i32 %34, -1
  store i32 %35, ptr %33, align 4, !tbaa !10
  %36 = load ptr, ptr %5, align 8, !tbaa !3
  %37 = getelementptr inbounds nuw %struct.mbedtls_ripemd160_context, ptr %36, i32 0, i32 0
  %38 = getelementptr inbounds [2 x i32], ptr %37, i64 0, i64 0
  %39 = load i32, ptr %38, align 4, !tbaa !10
  %40 = load i64, ptr %7, align 8, !tbaa !26
  %41 = trunc i64 %40 to i32
  %42 = icmp ult i32 %39, %41
  br i1 %42, label %43, label %49

43:                                               ; preds = %15
  %44 = load ptr, ptr %5, align 8, !tbaa !3
  %45 = getelementptr inbounds nuw %struct.mbedtls_ripemd160_context, ptr %44, i32 0, i32 0
  %46 = getelementptr inbounds [2 x i32], ptr %45, i64 0, i64 1
  %47 = load i32, ptr %46, align 4, !tbaa !10
  %48 = add i32 %47, 1
  store i32 %48, ptr %46, align 4, !tbaa !10
  br label %49

49:                                               ; preds = %43, %15
  %50 = load i32, ptr %10, align 4, !tbaa !10
  %51 = icmp ne i32 %50, 0
  br i1 %51, label %52, label %80

52:                                               ; preds = %49
  %53 = load i64, ptr %7, align 8, !tbaa !26
  %54 = load i64, ptr %9, align 8, !tbaa !26
  %55 = icmp uge i64 %53, %54
  br i1 %55, label %56, label %80

56:                                               ; preds = %52
  %57 = load ptr, ptr %5, align 8, !tbaa !3
  %58 = getelementptr inbounds nuw %struct.mbedtls_ripemd160_context, ptr %57, i32 0, i32 2
  %59 = getelementptr inbounds [64 x i8], ptr %58, i64 0, i64 0
  %60 = load i32, ptr %10, align 4, !tbaa !10
  %61 = zext i32 %60 to i64
  %62 = getelementptr inbounds nuw i8, ptr %59, i64 %61
  %63 = load ptr, ptr %6, align 8, !tbaa !12
  %64 = load i64, ptr %9, align 8, !tbaa !26
  call void @llvm.memcpy.p0.p0.i64(ptr align 1 %62, ptr align 1 %63, i64 %64, i1 false)
  %65 = load ptr, ptr %5, align 8, !tbaa !3
  %66 = load ptr, ptr %5, align 8, !tbaa !3
  %67 = getelementptr inbounds nuw %struct.mbedtls_ripemd160_context, ptr %66, i32 0, i32 2
  %68 = getelementptr inbounds [64 x i8], ptr %67, i64 0, i64 0
  %69 = call i32 @mbedtls_internal_ripemd160_process(ptr noundef %65, ptr noundef %68)
  store i32 %69, ptr %8, align 4, !tbaa !10
  %70 = icmp ne i32 %69, 0
  br i1 %70, label %71, label %73

71:                                               ; preds = %56
  %72 = load i32, ptr %8, align 4, !tbaa !10
  store i32 %72, ptr %4, align 4
  store i32 1, ptr %11, align 4
  br label %109

73:                                               ; preds = %56
  %74 = load i64, ptr %9, align 8, !tbaa !26
  %75 = load ptr, ptr %6, align 8, !tbaa !12
  %76 = getelementptr inbounds nuw i8, ptr %75, i64 %74
  store ptr %76, ptr %6, align 8, !tbaa !12
  %77 = load i64, ptr %9, align 8, !tbaa !26
  %78 = load i64, ptr %7, align 8, !tbaa !26
  %79 = sub i64 %78, %77
  store i64 %79, ptr %7, align 8, !tbaa !26
  store i32 0, ptr %10, align 4, !tbaa !10
  br label %80

80:                                               ; preds = %73, %52, %49
  br label %81

81:                                               ; preds = %91, %80
  %82 = load i64, ptr %7, align 8, !tbaa !26
  %83 = icmp uge i64 %82, 64
  br i1 %83, label %84, label %96

84:                                               ; preds = %81
  %85 = load ptr, ptr %5, align 8, !tbaa !3
  %86 = load ptr, ptr %6, align 8, !tbaa !12
  %87 = call i32 @mbedtls_internal_ripemd160_process(ptr noundef %85, ptr noundef %86)
  store i32 %87, ptr %8, align 4, !tbaa !10
  %88 = icmp ne i32 %87, 0
  br i1 %88, label %89, label %91

89:                                               ; preds = %84
  %90 = load i32, ptr %8, align 4, !tbaa !10
  store i32 %90, ptr %4, align 4
  store i32 1, ptr %11, align 4
  br label %109

91:                                               ; preds = %84
  %92 = load ptr, ptr %6, align 8, !tbaa !12
  %93 = getelementptr inbounds i8, ptr %92, i64 64
  store ptr %93, ptr %6, align 8, !tbaa !12
  %94 = load i64, ptr %7, align 8, !tbaa !26
  %95 = sub i64 %94, 64
  store i64 %95, ptr %7, align 8, !tbaa !26
  br label %81, !llvm.loop !28

96:                                               ; preds = %81
  %97 = load i64, ptr %7, align 8, !tbaa !26
  %98 = icmp ugt i64 %97, 0
  br i1 %98, label %99, label %108

99:                                               ; preds = %96
  %100 = load ptr, ptr %5, align 8, !tbaa !3
  %101 = getelementptr inbounds nuw %struct.mbedtls_ripemd160_context, ptr %100, i32 0, i32 2
  %102 = getelementptr inbounds [64 x i8], ptr %101, i64 0, i64 0
  %103 = load i32, ptr %10, align 4, !tbaa !10
  %104 = zext i32 %103 to i64
  %105 = getelementptr inbounds nuw i8, ptr %102, i64 %104
  %106 = load ptr, ptr %6, align 8, !tbaa !12
  %107 = load i64, ptr %7, align 8, !tbaa !26
  call void @llvm.memcpy.p0.p0.i64(ptr align 1 %105, ptr align 1 %106, i64 %107, i1 false)
  br label %108

108:                                              ; preds = %99, %96
  store i32 0, ptr %4, align 4
  store i32 1, ptr %11, align 4
  br label %109

109:                                              ; preds = %108, %89, %71, %14
  call void @llvm.lifetime.end.p0(i64 4, ptr %10) #7
  call void @llvm.lifetime.end.p0(i64 8, ptr %9) #7
  call void @llvm.lifetime.end.p0(i64 4, ptr %8) #7
  %110 = load i32, ptr %4, align 4
  ret i32 %110
}

; Function Attrs: nounwind uwtable
define hidden i32 @mbedtls_ripemd160_starts(ptr noundef %0) #0 {
  %2 = alloca ptr, align 8
  store ptr %0, ptr %2, align 8, !tbaa !3
  %3 = load ptr, ptr %2, align 8, !tbaa !3
  %4 = getelementptr inbounds nuw %struct.mbedtls_ripemd160_context, ptr %3, i32 0, i32 0
  %5 = getelementptr inbounds [2 x i32], ptr %4, i64 0, i64 0
  store i32 0, ptr %5, align 4, !tbaa !10
  %6 = load ptr, ptr %2, align 8, !tbaa !3
  %7 = getelementptr inbounds nuw %struct.mbedtls_ripemd160_context, ptr %6, i32 0, i32 0
  %8 = getelementptr inbounds [2 x i32], ptr %7, i64 0, i64 1
  store i32 0, ptr %8, align 4, !tbaa !10
  %9 = load ptr, ptr %2, align 8, !tbaa !3
  %10 = getelementptr inbounds nuw %struct.mbedtls_ripemd160_context, ptr %9, i32 0, i32 1
  %11 = getelementptr inbounds [5 x i32], ptr %10, i64 0, i64 0
  store i32 1732584193, ptr %11, align 4, !tbaa !10
  %12 = load ptr, ptr %2, align 8, !tbaa !3
  %13 = getelementptr inbounds nuw %struct.mbedtls_ripemd160_context, ptr %12, i32 0, i32 1
  %14 = getelementptr inbounds [5 x i32], ptr %13, i64 0, i64 1
  store i32 -271733879, ptr %14, align 4, !tbaa !10
  %15 = load ptr, ptr %2, align 8, !tbaa !3
  %16 = getelementptr inbounds nuw %struct.mbedtls_ripemd160_context, ptr %15, i32 0, i32 1
  %17 = getelementptr inbounds [5 x i32], ptr %16, i64 0, i64 2
  store i32 -1732584194, ptr %17, align 4, !tbaa !10
  %18 = load ptr, ptr %2, align 8, !tbaa !3
  %19 = getelementptr inbounds nuw %struct.mbedtls_ripemd160_context, ptr %18, i32 0, i32 1
  %20 = getelementptr inbounds [5 x i32], ptr %19, i64 0, i64 3
  store i32 271733878, ptr %20, align 4, !tbaa !10
  %21 = load ptr, ptr %2, align 8, !tbaa !3
  %22 = getelementptr inbounds nuw %struct.mbedtls_ripemd160_context, ptr %21, i32 0, i32 1
  %23 = getelementptr inbounds [5 x i32], ptr %22, i64 0, i64 4
  store i32 -1009589776, ptr %23, align 4, !tbaa !10
  ret i32 0
}

; Function Attrs: nounwind uwtable
define hidden void @mbedtls_ripemd160_init(ptr noundef %0) #0 {
  %2 = alloca ptr, align 8
  store ptr %0, ptr %2, align 8, !tbaa !3
  %3 = load ptr, ptr %2, align 8, !tbaa !3
  call void @llvm.memset.p0.i64(ptr align 4 %3, i8 0, i64 92, i1 false)
  ret void
}

; Function Attrs: nounwind uwtable
define hidden i32 @mbedtls_ripemd160(ptr noundef %0, i64 noundef %1, ptr noundef %2) #0 {
  %4 = alloca ptr, align 8
  %5 = alloca i64, align 8
  %6 = alloca ptr, align 8
  %7 = alloca i32, align 4
  %8 = alloca %struct.mbedtls_ripemd160_context, align 4
  store ptr %0, ptr %4, align 8, !tbaa !12
  store i64 %1, ptr %5, align 8, !tbaa !26
  store ptr %2, ptr %6, align 8, !tbaa !12
  call void @llvm.lifetime.start.p0(i64 4, ptr %7) #7
  store i32 -110, ptr %7, align 4, !tbaa !10
  call void @llvm.lifetime.start.p0(i64 92, ptr %8) #7
  call void @mbedtls_ripemd160_init(ptr noundef %8)
  %9 = call i32 @mbedtls_ripemd160_starts(ptr noundef %8)
  store i32 %9, ptr %7, align 4, !tbaa !10
  %10 = icmp ne i32 %9, 0
  br i1 %10, label %11, label %12

11:                                               ; preds = %3
  br label %24

12:                                               ; preds = %3
  %13 = load ptr, ptr %4, align 8, !tbaa !12
  %14 = load i64, ptr %5, align 8, !tbaa !26
  %15 = call i32 @mbedtls_ripemd160_update(ptr noundef %8, ptr noundef %13, i64 noundef %14)
  store i32 %15, ptr %7, align 4, !tbaa !10
  %16 = icmp ne i32 %15, 0
  br i1 %16, label %17, label %18

17:                                               ; preds = %12
  br label %24

18:                                               ; preds = %12
  %19 = load ptr, ptr %6, align 8, !tbaa !12
  %20 = call i32 @mbedtls_ripemd160_finish(ptr noundef %8, ptr noundef %19)
  store i32 %20, ptr %7, align 4, !tbaa !10
  %21 = icmp ne i32 %20, 0
  br i1 %21, label %22, label %23

22:                                               ; preds = %18
  br label %24

23:                                               ; preds = %18
  br label %24

24:                                               ; preds = %23, %22, %17, %11
  call void @mbedtls_ripemd160_free(ptr noundef %8)
  %25 = load i32, ptr %7, align 4, !tbaa !10
  call void @llvm.lifetime.end.p0(i64 92, ptr %8) #7
  call void @llvm.lifetime.end.p0(i64 4, ptr %7) #7
  ret i32 %25
}

; Function Attrs: nounwind uwtable
define hidden i32 @mbedtls_ripemd160_self_test(i32 noundef %0) #0 {
  %2 = alloca i32, align 4
  %3 = alloca i32, align 4
  %4 = alloca i32, align 4
  %5 = alloca i32, align 4
  %6 = alloca [20 x i8], align 16
  %7 = alloca i32, align 4
  store i32 %0, ptr %3, align 4, !tbaa !10
  call void @llvm.lifetime.start.p0(i64 4, ptr %4) #7
  call void @llvm.lifetime.start.p0(i64 4, ptr %5) #7
  store i32 0, ptr %5, align 4, !tbaa !10
  call void @llvm.lifetime.start.p0(i64 20, ptr %6) #7
  %8 = getelementptr inbounds [20 x i8], ptr %6, i64 0, i64 0
  call void @llvm.memset.p0.i64(ptr align 16 %8, i8 0, i64 20, i1 false)
  store i32 0, ptr %4, align 4, !tbaa !10
  br label %9

9:                                                ; preds = %48, %1
  %10 = load i32, ptr %4, align 4, !tbaa !10
  %11 = icmp slt i32 %10, 8
  br i1 %11, label %12, label %51

12:                                               ; preds = %9
  %13 = load i32, ptr %3, align 4, !tbaa !10
  %14 = icmp ne i32 %13, 0
  br i1 %14, label %15, label %19

15:                                               ; preds = %12
  %16 = load i32, ptr %4, align 4, !tbaa !10
  %17 = add nsw i32 %16, 1
  %18 = call i32 (ptr, ...) @printf(ptr noundef @.str, i32 noundef %17)
  br label %19

19:                                               ; preds = %15, %12
  %20 = load i32, ptr %4, align 4, !tbaa !10
  %21 = sext i32 %20 to i64
  %22 = getelementptr inbounds [8 x [81 x i8]], ptr @ripemd160_test_str, i64 0, i64 %21
  %23 = getelementptr inbounds [81 x i8], ptr %22, i64 0, i64 0
  %24 = load i32, ptr %4, align 4, !tbaa !10
  %25 = sext i32 %24 to i64
  %26 = getelementptr inbounds [8 x i64], ptr @ripemd160_test_strlen, i64 0, i64 %25
  %27 = load i64, ptr %26, align 8, !tbaa !26
  %28 = getelementptr inbounds [20 x i8], ptr %6, i64 0, i64 0
  %29 = call i32 @mbedtls_ripemd160(ptr noundef %23, i64 noundef %27, ptr noundef %28)
  store i32 %29, ptr %5, align 4, !tbaa !10
  %30 = load i32, ptr %5, align 4, !tbaa !10
  %31 = icmp ne i32 %30, 0
  br i1 %31, label %32, label %33

32:                                               ; preds = %19
  br label %57

33:                                               ; preds = %19
  %34 = getelementptr inbounds [20 x i8], ptr %6, i64 0, i64 0
  %35 = load i32, ptr %4, align 4, !tbaa !10
  %36 = sext i32 %35 to i64
  %37 = getelementptr inbounds [8 x [20 x i8]], ptr @ripemd160_test_md, i64 0, i64 %36
  %38 = getelementptr inbounds [20 x i8], ptr %37, i64 0, i64 0
  %39 = call i32 @memcmp(ptr noundef %34, ptr noundef %38, i64 noundef 20) #8
  %40 = icmp ne i32 %39, 0
  br i1 %40, label %41, label %42

41:                                               ; preds = %33
  store i32 1, ptr %5, align 4, !tbaa !10
  br label %57

42:                                               ; preds = %33
  %43 = load i32, ptr %3, align 4, !tbaa !10
  %44 = icmp ne i32 %43, 0
  br i1 %44, label %45, label %47

45:                                               ; preds = %42
  %46 = call i32 (ptr, ...) @printf(ptr noundef @.str.1)
  br label %47

47:                                               ; preds = %45, %42
  br label %48

48:                                               ; preds = %47
  %49 = load i32, ptr %4, align 4, !tbaa !10
  %50 = add nsw i32 %49, 1
  store i32 %50, ptr %4, align 4, !tbaa !10
  br label %9, !llvm.loop !30

51:                                               ; preds = %9
  %52 = load i32, ptr %3, align 4, !tbaa !10
  %53 = icmp ne i32 %52, 0
  br i1 %53, label %54, label %56

54:                                               ; preds = %51
  %55 = call i32 (ptr, ...) @printf(ptr noundef @.str.2)
  br label %56

56:                                               ; preds = %54, %51
  store i32 0, ptr %2, align 4
  store i32 1, ptr %7, align 4
  br label %64

57:                                               ; preds = %41, %32
  %58 = load i32, ptr %3, align 4, !tbaa !10
  %59 = icmp ne i32 %58, 0
  br i1 %59, label %60, label %62

60:                                               ; preds = %57
  %61 = call i32 (ptr, ...) @printf(ptr noundef @.str.3)
  br label %62

62:                                               ; preds = %60, %57
  %63 = load i32, ptr %5, align 4, !tbaa !10
  store i32 %63, ptr %2, align 4
  store i32 1, ptr %7, align 4
  br label %64

64:                                               ; preds = %62, %56
  call void @llvm.lifetime.end.p0(i64 20, ptr %6) #7
  call void @llvm.lifetime.end.p0(i64 4, ptr %5) #7
  call void @llvm.lifetime.end.p0(i64 4, ptr %4) #7
  %65 = load i32, ptr %2, align 4
  ret i32 %65
}