; Function Attrs: nounwind uwtable
define hidden range(i32 0, 2) i32 @mbedtls_ripemd160_self_test(i32 noundef %0) local_unnamed_addr #2 {
  %2 = alloca %struct.mbedtls_ripemd160_context, align 4
  %3 = alloca [20 x i8], align 16
  call void @llvm.lifetime.start.p0(i64 20, ptr nonnull %3) #11
  call void @llvm.memset.p0.i64(ptr noundef nonnull align 16 dereferenceable(20) %3, i8 0, i64 20, i1 false)
  %.not16 = icmp eq i32 %0, 0
  %4 = getelementptr inbounds nuw i8, ptr %2, i64 8
  %5 = getelementptr inbounds nuw i8, ptr %2, i64 12
  %6 = getelementptr inbounds nuw i8, ptr %2, i64 16
  %7 = getelementptr inbounds nuw i8, ptr %2, i64 20
  %8 = getelementptr inbounds nuw i8, ptr %2, i64 24
  %9 = getelementptr inbounds nuw i8, ptr %2, i64 28
  br i1 %.not16, label %.split.us, label %.split

.split.us:                                        ; preds = %1, %23
  %indvars.iv30 = phi i64 [ %indvars.iv.next31, %23 ], [ 0, %1 ]
  %10 = getelementptr inbounds nuw [8 x i64], ptr @ripemd160_test_strlen, i64 0, i64 %indvars.iv30
  %11 = load i64, ptr %10, align 8, !tbaa !22
  call void @llvm.lifetime.start.p0(i64 92, ptr nonnull %2) #11
  call void @llvm.memset.p0.i64(ptr noundef nonnull align 4 dereferenceable(92) %2, i8 0, i64 92, i1 false)
  store i32 1732584193, ptr %4, align 4, !tbaa !7
  store i32 -271733879, ptr %5, align 4, !tbaa !7
  store i32 -1732584194, ptr %6, align 4, !tbaa !7
  store i32 271733878, ptr %7, align 4, !tbaa !7
  store i32 -1009589776, ptr %8, align 4, !tbaa !7
  %12 = icmp eq i64 %indvars.iv30, 0
  br i1 %12, label %mbedtls_ripemd160.exit.us, label %13

13:                                               ; preds = %.split.us
  %14 = getelementptr inbounds nuw [8 x [81 x i8]], ptr @ripemd160_test_str, i64 0, i64 %indvars.iv30
  %15 = trunc i64 %11 to i32
  store i32 %15, ptr %2, align 4, !tbaa !7
  %16 = icmp eq i64 %indvars.iv30, 7
  br i1 %16, label %.lr.ph.i.i.us, label %._crit_edge.thread.i.i.us

.lr.ph.i.i.us:                                    ; preds = %13, %.lr.ph.i.i.us
  %.147.i.i.us = phi i64 [ %19, %.lr.ph.i.i.us ], [ %11, %13 ]
  %.13746.i.i.us = phi ptr [ %18, %.lr.ph.i.i.us ], [ %14, %13 ]
  %17 = call i32 @mbedtls_internal_ripemd160_process(ptr noundef nonnull %2, ptr noundef nonnull %.13746.i.i.us)
  %18 = getelementptr inbounds nuw i8, ptr %.13746.i.i.us, i64 64
  %19 = add i64 %.147.i.i.us, -64
  %20 = icmp ugt i64 %19, 63
  br i1 %20, label %.lr.ph.i.i.us, label %._crit_edge.i.i.us, !llvm.loop !20

._crit_edge.i.i.us:                               ; preds = %.lr.ph.i.i.us
  %.not45.i.i.us = icmp eq i64 %19, 0
  br i1 %.not45.i.i.us, label %mbedtls_ripemd160.exit.us, label %._crit_edge.thread.i.i.us

._crit_edge.thread.i.i.us:                        ; preds = %._crit_edge.i.i.us, %13
  %.1.lcssa.i9.i.us = phi i64 [ %19, %._crit_edge.i.i.us ], [ %11, %13 ]
  %.137.lcssa.i8.i.us = phi ptr [ %18, %._crit_edge.i.i.us ], [ %14, %13 ]
  call void @llvm.memcpy.p0.p0.i64(ptr nonnull align 4 %9, ptr nonnull align 1 %.137.lcssa.i8.i.us, i64 %.1.lcssa.i9.i.us, i1 false)
  br label %mbedtls_ripemd160.exit.us

mbedtls_ripemd160.exit.us:                        ; preds = %._crit_edge.thread.i.i.us, %._crit_edge.i.i.us, %.split.us
  %21 = call i32 @mbedtls_ripemd160_finish(ptr noundef nonnull %2, ptr noundef nonnull %3)
  call void @mbedtls_platform_zeroize(ptr noundef nonnull %2, i64 noundef 92) #11
  call void @llvm.lifetime.end.p0(i64 92, ptr nonnull %2) #11
  %22 = getelementptr inbounds nuw [8 x [20 x i8]], ptr @ripemd160_test_md, i64 0, i64 %indvars.iv30
  %bcmp.us = call i32 @bcmp(ptr noundef nonnull dereferenceable(20) %3, ptr noundef nonnull dereferenceable(20) %22, i64 20)
  %.not17.us = icmp eq i32 %bcmp.us, 0
  br i1 %.not17.us, label %23, label %.critedge

23:                                               ; preds = %mbedtls_ripemd160.exit.us
  %indvars.iv.next31 = add nuw nsw i64 %indvars.iv30, 1
  %exitcond33.not = icmp eq i64 %indvars.iv.next31, 8
  br i1 %exitcond33.not, label %.split24.us, label %.split.us, !llvm.loop !24

.split:                                           ; preds = %1, %39
  %indvars.iv = phi i64 [ %indvars.iv.next, %39 ], [ 0, %1 ]
  %indvars.iv.next = add nuw nsw i64 %indvars.iv, 1
  %24 = trunc nuw nsw i64 %indvars.iv.next to i32
  %25 = call i32 (ptr, ...) @printf(ptr noundef nonnull dereferenceable(1) @.str, i32 noundef %24)
  %26 = getelementptr inbounds nuw [8 x i64], ptr @ripemd160_test_strlen, i64 0, i64 %indvars.iv
  %27 = load i64, ptr %26, align 8, !tbaa !22
  call void @llvm.lifetime.start.p0(i64 92, ptr nonnull %2) #11
  call void @llvm.memset.p0.i64(ptr noundef nonnull align 4 dereferenceable(92) %2, i8 0, i64 92, i1 false)
  store i32 1732584193, ptr %4, align 4, !tbaa !7
  store i32 -271733879, ptr %5, align 4, !tbaa !7
  store i32 -1732584194, ptr %6, align 4, !tbaa !7
  store i32 271733878, ptr %7, align 4, !tbaa !7
  store i32 -1009589776, ptr %8, align 4, !tbaa !7
  %28 = icmp eq i64 %indvars.iv, 0
  br i1 %28, label %mbedtls_ripemd160.exit, label %29

29:                                               ; preds = %.split
  %30 = getelementptr inbounds nuw [8 x [81 x i8]], ptr @ripemd160_test_str, i64 0, i64 %indvars.iv
  %31 = trunc i64 %27 to i32
  store i32 %31, ptr %2, align 4, !tbaa !7
  %32 = icmp eq i64 %indvars.iv, 7
  br i1 %32, label %.lr.ph.i.i, label %._crit_edge.thread.i.i

.lr.ph.i.i:                                       ; preds = %29, %.lr.ph.i.i
  %.147.i.i = phi i64 [ %35, %.lr.ph.i.i ], [ %27, %29 ]
  %.13746.i.i = phi ptr [ %34, %.lr.ph.i.i ], [ %30, %29 ]
  %33 = call i32 @mbedtls_internal_ripemd160_process(ptr noundef nonnull %2, ptr noundef nonnull %.13746.i.i)
  %34 = getelementptr inbounds nuw i8, ptr %.13746.i.i, i64 64
  %35 = add i64 %.147.i.i, -64
  %36 = icmp ugt i64 %35, 63
  br i1 %36, label %.lr.ph.i.i, label %._crit_edge.i.i, !llvm.loop !20

._crit_edge.i.i:                                  ; preds = %.lr.ph.i.i
  %.not45.i.i = icmp eq i64 %35, 0
  br i1 %.not45.i.i, label %mbedtls_ripemd160.exit, label %._crit_edge.thread.i.i

._crit_edge.thread.i.i:                           ; preds = %._crit_edge.i.i, %29
  %.1.lcssa.i9.i = phi i64 [ %35, %._crit_edge.i.i ], [ %27, %29 ]
  %.137.lcssa.i8.i = phi ptr [ %34, %._crit_edge.i.i ], [ %30, %29 ]
  call void @llvm.memcpy.p0.p0.i64(ptr nonnull align 4 %9, ptr nonnull align 1 %.137.lcssa.i8.i, i64 %.1.lcssa.i9.i, i1 false)
  br label %mbedtls_ripemd160.exit

mbedtls_ripemd160.exit:                           ; preds = %.split, %._crit_edge.i.i, %._crit_edge.thread.i.i
  %37 = call i32 @mbedtls_ripemd160_finish(ptr noundef nonnull %2, ptr noundef nonnull %3)
  call void @mbedtls_platform_zeroize(ptr noundef nonnull %2, i64 noundef 92) #11
  call void @llvm.lifetime.end.p0(i64 92, ptr nonnull %2) #11
  %38 = getelementptr inbounds nuw [8 x [20 x i8]], ptr @ripemd160_test_md, i64 0, i64 %indvars.iv
  %bcmp = call i32 @bcmp(ptr noundef nonnull dereferenceable(20) %3, ptr noundef nonnull dereferenceable(20) %38, i64 20)
  %.not17 = icmp eq i32 %bcmp, 0
  br i1 %.not17, label %39, label %.split22.us

39:                                               ; preds = %mbedtls_ripemd160.exit
  %puts = call i32 @puts(ptr nonnull dereferenceable(1) @str)
  %exitcond.not = icmp eq i64 %indvars.iv.next, 8
  br i1 %exitcond.not, label %.split24.us, label %.split, !llvm.loop !24

.split24.us:                                      ; preds = %39, %23
  br i1 %.not16, label %.critedge, label %40

40:                                               ; preds = %.split24.us
  %putchar = call i32 @putchar(i32 10)
  br label %.critedge

.split22.us:                                      ; preds = %mbedtls_ripemd160.exit
  %puts18 = call i32 @puts(ptr nonnull dereferenceable(1) @str.1)
  br label %.critedge

.critedge:                                        ; preds = %mbedtls_ripemd160.exit.us, %.split22.us, %.split24.us, %40
  %.014 = phi i32 [ 0, %40 ], [ 0, %.split24.us ], [ 1, %.split22.us ], [ 1, %mbedtls_ripemd160.exit.us ]
  call void @llvm.lifetime.end.p0(i64 20, ptr nonnull %3) #11
  ret i32 %.014
}